Certificate:
    Data:
        Version: 3 (0x2)
        Serial Number: 2 (0x2)
        Signature Algorithm: sha256WithRSAEncryption
        Issuer: C=CH, ST=BJ, L=BJ, O=BD, OU=baidu, CN=MZ
        Validity
            Not Before: Apr  2 12:36:24 2020 GMT
            Not After : Apr  2 12:36:24 2021 GMT
        Subject: C=CH, ST=BJ, O=BD, OU=ACG, CN=LYZ
        Subject Public Key Info:
            Public Key Algorithm: rsaEncryption
                RSA Public-Key: (1024 bit)
                Modulus:
                    00:ce:bd:31:2b:c2:34:b7:ed:5c:fd:24:ce:3e:8a:
                    3c:9d:07:f1:fc:a9:bb:a0:7f:e0:1b:e1:67:43:8c:
                    36:40:10:dd:6c:c8:2c:75:a6:ad:4f:95:ac:33:d5:
                    8e:10:30:26:71:9d:05:10:de:0a:d4:6d:f5:70:99:
                    07:6e:ad:75:7d:c8:b4:00:33:3c:18:ba:18:2a:54:
                    c3:14:07:d9:37:5a:ea:25:41:77:56:f1:87:a4:bb:
                    f4:e0:ef:0a:aa:c7:07:4f:23:75:9b:da:c5:ba:65:
                    8c:26:c5:bf:fc:05:9c:ea:ba:4a:7b:d8:fd:11:8f:
                    6f:ca:79:4d:55:2b:5a:cc:c5
                Exponent: 65537 (0x10001)
        X509v3 extensions:
            X509v3 Basic Constraints: 
                CA:FALSE
            Netscape Comment: 
                OpenSSL Generated Certificate
            X509v3 Subject Key Identifier: 
                34:11:41:E5:4C:10:BE:77:FE:04:B1:03:E1:1D:95:DC:4E:6D:44:10
            X509v3 Authority Key Identifier: 
                DirName:/C=CH/ST=BJ/L=BJ/O=BD/OU=baidu/CN=MZ
                serial:56:5A:F5:46:B6:94:3A:21:C7:3B:BB:09:01:E6:B0:B9:72:1B:95:D5

    Signature Algorithm: sha256WithRSAEncryption
         37:2f:e7:e9:14:38:0f:9c:a8:92:15:13:93:df:08:d2:78:d6:
         d5:25:9c:79:73:88:1a:59:72:f6:4d:0c:e7:b8:a1:fb:ce:b9:
         37:ce:9c:d6:ac:a7:94:7c:44:17:91:1d:dd:3a:20:b5:0a:ab:
         59:3a:dd:20:e5:14:33:4c:ea:58:ad:72:4c:85:0d:40:45:0e:
         48:03:c6:c6:0f:0e:03:7b:3d:74:f8:55:c7:45:cf:d6:3c:2c:
         d4:3d:90:ec:e0:ad:99:c9:84:9a:3b:39:95:a4:ed:3a:f5:4f:
         aa:29:5b:6c:62:ff:9f:98:dd:99:e4:24:b5:e8:7a:ff:d0:55:
         76:22:76:29:87:4c:74:f7:6f:c6:3e:f4:92:31:61:84:fc:b9:
         3b:12:d3:68:0b:ed:20:1b:97:d0:ee:03:bc:53:48:6d:3f:09:
         67:79:1b:9c:fd:90:29:ec:b4:1e:05:5e:3c:6b:32:08:f5:d2:
         e4:df:1e:a2:b8:9a:11:05:01:8b:33:30:7c:76:f3:57:df:93:
         d8:c2:11:62:48:c8:5f:7a:41:db:29:45:d9:8e:1f:93:ec:be:
         8d:a2:73:17:7a:18:de:a2:dc:62:f4:45:8a:9c:7e:f1:b9:ae:
         b3:30:70:72:7f:0f:6e:cf:0b:68:7b:58:16:27:5e:11:1d:be:
         44:33:fe:a0
-----BEGIN CERTIFICATE-----
MIIDXzCCAkegAwIBAgIBAjANBgkqhkiG9w0BAQsFADBRMQswCQYDVQQGEwJDSDEL
MAkGA1UECAwCQkoxCzAJBgNVBAcMAkJKMQswCQYDVQQKDAJCRDEOMAwGA1UECwwF
YmFpZHUxCzAJBgNVBAMMAk1aMB4XDTIwMDQwMjEyMzYyNFoXDTIxMDQwMjEyMzYy
NFowQzELMAkGA1UEBhMCQ0gxCzAJBgNVBAgMAkJKMQswCQYDVQQKDAJCRDEMMAoG
A1UECwwDQUNHMQwwCgYDVQQDDANMWVowgZ8wDQYJKoZIhvcNAQEBBQADgY0AMIGJ
AoGBAM69MSvCNLftXP0kzj6KPJ0H8fypu6B/4BvhZ0OMNkAQ3WzILHWmrU+VrDPV
jhAwJnGdBRDeCtRt9XCZB26tdX3ItAAzPBi6GCpUwxQH2Tda6iVBd1bxh6S79ODv
CqrHB08jdZvaxbpljCbFv/wFnOq6SnvY/RGPb8p5TVUrWszFAgMBAAGjgdMwgdAw
CQYDVR0TBAIwADAsBglghkgBhvhCAQ0EHxYdT3BlblNTTCBHZW5lcmF0ZWQgQ2Vy
dGlmaWNhdGUwHQYDVR0OBBYEFDQRQeVMEL53/gSxA+EdldxObUQQMHYGA1UdIwRv
MG2hVaRTMFExCzAJBgNVBAYTAkNIMQswCQYDVQQIDAJCSjELMAkGA1UEBwwCQkox
CzAJBgNVBAoMAkJEMQ4wDAYDVQQLDAViYWlkdTELMAkGA1UEAwwCTVqCFFZa9Ua2
lDohxzu7CQHmsLlyG5XVMA0GCSqGSIb3DQEBCwUAA4IBAQA3L+fpFDgPnKiSFROT
3wjSeNbVJZx5c4gaWXL2TQznuKH7zrk3zpzWrKeUfEQXkR3dOiC1CqtZOt0g5RQz
TOpYrXJMhQ1ARQ5IA8bGDw4Dez10+FXHRc/WPCzUPZDs4K2ZyYSaOzmVpO069U+q
KVtsYv+fmN2Z5CS16Hr/0FV2InYph0x092/GPvSSMWGE/Lk7EtNoC+0gG5fQ7gO8
U0htPwlneRuc/ZAp7LQeBV48azII9dLk3x6iuJoRBQGLMzB8dvNX35PYwhFiSMhf
ekHbKUXZjh+T7L6NonMXehjeotxi9EWKnH7xua6zMHByfw9uzwtoe1gWJ14RHb5E
M/6g
-----END CERTIFICATE-----
-----BEGIN RSA PRIVATE KEY-----
Proc-Type: 4,ENCRYPTED
DEK-Info: DES-EDE3-CBC,907DF397AF67398A

26TmtJvlVGZ9aP1g1lh7tSigx6vb+qMK2CR0sS+xhKKpLCPPyc+wHTCROSoxkUv1
OWKjqp1bZSRFJBbeekBCSb2sAS6H3LCf7yg2b7iW1UcNEbttddHocmMnvlm1jNhP
PXIxZ9v1Itpsauedd7SK3phNuX51qZdZObixCcOWHbgU2oHt99v1Ig66ahXv0KRP
/gGNwHZvwKN7lHy6NU++h1qqrI91EnwC1HJdgNtLVoH9VSNUUJbYAvULXPFIlEf5
6YQwt6C59+japLEQVBe/+Zz6yT71a4eHKhSiQXrQ/sZlnxBwkzAVpmbtln+VcCOR
bC8OCD7rrRji1dFjsnMXRiwRHeLIcSxb2JFnRYWHZo5tfw1NYh8VX86RYk6qC5u2
to+0qMV8ALzO3/dvTnX54gCntgft74DoH3g1JCcZxnkaRMoTSHQe5kWuE3i3wqHF
lTd/wwm8vEYivIA+A5EWM9lYxwxVQU1qo9g75nn7pPD+NwO3qNpQK90jtzgxKA/h
f/XVuL7a6B6S6HxTO9lIRU7HmABhULv0a8eUJwBvnjO2vnJRuNaKbp2P1S4TtLFt
imrXa925aQlizZpdUiOyvQ2/634lbPgj/pHbL+g6gc6IHv1mQkSD6EfdcX4I+z3Q
NilV2qAtMVbq1yEAewgze7kNRrz7qbIpsMrtzlIlsfdJLsa+INTsCDrvpAVJBBxf
4jr3hK1/BEsa41tTiQCS7COsinEsGwYT9kusxP+d/g5QWFZ97WmB/uPdeU8i1gui
SUyhQSOfgYJOD7mQuyaUiI0EcgT5x5+LprrYqt2BYM4=
-----END RSA PRIVATE KEY-----
